; Function Attrs: nounwind uwtable
define dso_local ptr @RelationGetIndexPredicate(ptr noundef captures(none) %0) local_unnamed_addr #0 {
  %2 = alloca i8, align 1
  call void @llvm.lifetime.start.p0(i64 1, ptr nonnull %2) #13
  %3 = getelementptr inbounds nuw i8, ptr %0, i64 408
  %4 = load ptr, ptr %3, align 8
  %.not = icmp eq ptr %4, null
  br i1 %.not, label %7, label %5

5:                                                ; preds = %1
  %6 = tail call ptr @copyObjectImpl(ptr noundef nonnull %4) #13
  br label %51

7:                                                ; preds = %1
  %8 = getelementptr inbounds nuw i8, ptr %0, i64 336
  %9 = load ptr, ptr %8, align 8
  %10 = icmp eq ptr %9, null
  br i1 %10, label %51, label %11

11:                                               ; preds = %7
  %12 = tail call zeroext i1 @heap_attisnull(ptr noundef nonnull %9, i32 noundef 21, ptr noundef null) #13
  br i1 %12, label %51, label %13

13:                                               ; preds = %11
  %14 = load ptr, ptr %8, align 8
  %15 = load ptr, ptr @GetPgIndexDescriptor.pgindexdesc, align 8
  %16 = icmp eq ptr %15, null
  br i1 %16, label %17, label %GetPgIndexDescriptor.exit

17:                                               ; preds = %13
  %18 = load ptr, ptr @CacheMemoryContext, align 8
  %19 = load ptr, ptr @CurrentMemoryContext, align 8
  store ptr %18, ptr @CurrentMemoryContext, align 8
  %20 = tail call ptr @CreateTemplateTupleDesc(i32 noundef 21) #13
  %21 = getelementptr inbounds nuw i8, ptr %20, i64 4
  store i32 2249, ptr %21, align 4
  %22 = getelementptr inbounds nuw i8, ptr %20, i64 8
  store i32 -1, ptr %22, align 8
  %invariant.gep.i.i = getelementptr i8, ptr %20, i64 24
  br label %23

23:                                               ; preds = %23, %17
  %indvars.iv.i.i = phi i64 [ 0, %17 ], [ %indvars.iv.next.i.i, %23 ]
  %24 = load i32, ptr %20, align 8
  %25 = sext i32 %24 to i64
  %26 = shl nsw i64 %25, 4
  %gep.i.i = getelementptr i8, ptr %invariant.gep.i.i, i64 %26
  %27 = getelementptr inbounds nuw %struct.FormData_pg_attribute, ptr %gep.i.i, i64 %indvars.iv.i.i
  %28 = getelementptr inbounds nuw %struct.FormData_pg_attribute, ptr @Desc_pg_index, i64 %indvars.iv.i.i
  tail call void @llvm.memcpy.p0.p0.i64(ptr noundef nonnull align 4 dereferenceable(100) %27, ptr noundef nonnull readonly align 4 dereferenceable(100) %28, i64 100, i1 false)
  %29 = trunc nuw nsw i64 %indvars.iv.i.i to i32
  tail call void @populate_compact_attribute(ptr noundef nonnull %20, i32 noundef %29) #13
  %indvars.iv.next.i.i = add nuw nsw i64 %indvars.iv.i.i, 1
  %exitcond.not.i.i = icmp eq i64 %indvars.iv.next.i.i, 21
  br i1 %exitcond.not.i.i, label %BuildHardcodedDescriptor.exit.i, label %23, !llvm.loop !4

BuildHardcodedDescriptor.exit.i:                  ; preds = %23
  store i32 0, ptr %invariant.gep.i.i, align 4
  store ptr %19, ptr @CurrentMemoryContext, align 8
  store ptr %20, ptr @GetPgIndexDescriptor.pgindexdesc, align 8
  br label %GetPgIndexDescriptor.exit

GetPgIndexDescriptor.exit:                        ; preds = %13, %BuildHardcodedDescriptor.exit.i
  %30 = phi ptr [ %20, %BuildHardcodedDescriptor.exit.i ], [ %15, %13 ]
  %31 = getelementptr inbounds nuw i8, ptr %14, i64 16
  %32 = load ptr, ptr %31, align 8
  %33 = getelementptr inbounds nuw i8, ptr %32, i64 18
  %34 = load i16, ptr %33, align 2
  %35 = and i16 %34, 2047
  %36 = icmp samesign ult i16 %35, 21
  br i1 %36, label %37, label %39

37:                                               ; preds = %GetPgIndexDescriptor.exit
  %38 = call i64 @getmissingattr(ptr noundef nonnull %30, i32 noundef 21, ptr noundef nonnull %2) #13
  br label %heap_getattr.exit

39:                                               ; preds = %GetPgIndexDescriptor.exit
  %40 = call fastcc i64 @fastgetattr(ptr noundef nonnull %14, i32 noundef 21, ptr noundef nonnull %30, ptr noundef nonnull %2)
  br label %heap_getattr.exit

heap_getattr.exit:                                ; preds = %37, %39
  %.0.i = phi i64 [ %38, %37 ], [ %40, %39 ]
  %41 = inttoptr i64 %.0.i to ptr
  %42 = call ptr @text_to_cstring(ptr noundef %41) #13
  %43 = call ptr @stringToNode(ptr noundef %42) #13
  call void @pfree(ptr noundef %42) #13
  %44 = call ptr @eval_const_expressions(ptr noundef null, ptr noundef %43) #13
  %45 = call ptr @canonicalize_qual(ptr noundef %44, i1 noundef zeroext false) #13
  %46 = call ptr @make_ands_implicit(ptr noundef %45) #13
  call void @fix_opfuncids(ptr noundef %46) #13
  %47 = getelementptr inbounds nuw i8, ptr %0, i64 344
  %48 = load ptr, ptr %47, align 8
  %49 = load ptr, ptr @CurrentMemoryContext, align 8
  store ptr %48, ptr @CurrentMemoryContext, align 8
  %50 = call ptr @copyObjectImpl(ptr noundef %46) #13
  store ptr %50, ptr %3, align 8
  store ptr %49, ptr @CurrentMemoryContext, align 8
  br label %51

51:                                               ; preds = %7, %11, %heap_getattr.exit, %5
  %.0 = phi ptr [ %6, %5 ], [ %46, %heap_getattr.exit ], [ null, %11 ], [ null, %7 ]
  call void @llvm.lifetime.end.p0(i64 1, ptr nonnull %2) #13
  ret ptr %.0
}